; Function Attrs: nounwind uwtable
define internal void @lv_dropdown_destructor(ptr nocapture readnone %0, ptr nocapture noundef %1) #0 {
  %3 = getelementptr inbounds nuw i8, ptr %1, i64 64
  %4 = load ptr, ptr %3, align 8, !tbaa !3
  %.not = icmp eq ptr %4, null
  br i1 %.not, label %6, label %5

5:                                                ; preds = %2
  tail call void @lv_obj_delete(ptr noundef nonnull %4) #7
  store ptr null, ptr %3, align 8, !tbaa !3
  br label %6

6:                                                ; preds = %5, %2
  %7 = getelementptr inbounds nuw i8, ptr %1, i64 112
  %8 = load i8, ptr %7, align 8
  %9 = and i8 %8, 16
  %.not7 = icmp eq i8 %9, 0
  br i1 %.not7, label %10, label %13

10:                                               ; preds = %6
  %11 = getelementptr inbounds nuw i8, ptr %1, i64 88
  %12 = load ptr, ptr %11, align 8, !tbaa !12
  tail call void @lv_free(ptr noundef %12) #7
  store ptr null, ptr %11, align 8, !tbaa !12
  br label %13

13:                                               ; preds = %10, %6
  ret void
}